target datalayout = "e-m:e-p270:32:32-p271:32:32-p272:64:64-i64:64-i128:128-f80:128-n8:16:32:64-S128"
target triple = "x86_64-pc-linux-gnu"

%struct.grpc_completion_queue_attributes = type { i32, i32, i32, ptr }

; Function Attrs: mustprogress uwtable
define internal noundef ptr @_ZL14default_createPK29grpc_completion_queue_factoryPK32grpc_completion_queue_attributes(ptr noundef %0, ptr noundef %1) #4 {
  %3 = alloca ptr, align 8
  %4 = alloca ptr, align 8
  store ptr %0, ptr %3, align 8, !tbaa !57
  store ptr %1, ptr %4, align 8, !tbaa !3
  %5 = load ptr, ptr %4, align 8, !tbaa !3
  %6 = getelementptr inbounds nuw %struct.grpc_completion_queue_attributes, ptr %5, i32 0, i32 1
  %7 = load i32, ptr %6, align 4, !tbaa !54
  %8 = load ptr, ptr %4, align 8, !tbaa !3
  %9 = getelementptr inbounds nuw %struct.grpc_completion_queue_attributes, ptr %8, i32 0, i32 2
  %10 = load i32, ptr %9, align 8, !tbaa !55
  %11 = load ptr, ptr %4, align 8, !tbaa !3
  %12 = getelementptr inbounds nuw %struct.grpc_completion_queue_attributes, ptr %11, i32 0, i32 3
  %13 = load ptr, ptr %12, align 8, !tbaa !56
  %14 = call noundef ptr @_Z37grpc_completion_queue_create_internal23grpc_cq_completion_type20grpc_cq_polling_typeP29grpc_completion_queue_functor(i32 noundef %7, i32 noundef %10, ptr noundef %13)
  ret ptr %14
}