; Function Attrs: mustprogress uwtable
define internal noundef ptr @_ZL14default_createPK29grpc_completion_queue_factoryPK32grpc_completion_queue_attributes(ptr readnone captures(none) %0, ptr noundef readonly captures(none) %1) #3 {
  %3 = getelementptr inbounds nuw i8, ptr %1, i64 4
  %4 = load i32, ptr %3, align 4, !tbaa !43
  %5 = getelementptr inbounds nuw i8, ptr %1, i64 8
  %6 = load i32, ptr %5, align 8, !tbaa !44
  %7 = getelementptr inbounds nuw i8, ptr %1, i64 16
  %8 = load ptr, ptr %7, align 8, !tbaa !45
  %9 = tail call noundef ptr @_Z37grpc_completion_queue_create_internal23grpc_cq_completion_type20grpc_cq_polling_typeP29grpc_completion_queue_functor(i32 noundef %4, i32 noundef %6, ptr noundef %8)
  ret ptr %9
}